; Function Attrs: mustprogress uwtable
define void @_ZN6icu_7717DateFormatSymbols14setZoneStringsEPKPKNS_13UnicodeStringEii(ptr noundef nonnull align 8 captures(none) dereferenceable(976) %0, ptr noundef readonly captures(none) %1, i32 noundef %2, i32 noundef %3) local_unnamed_addr #1 align 2 {
  tail call void @_ZN6icu_7717DateFormatSymbols18disposeZoneStringsEv(ptr noundef nonnull align 8 dereferenceable(976) %0)
  %5 = getelementptr inbounds nuw i8, ptr %0, i64 536
  store i32 %2, ptr %5, align 8, !tbaa !149
  %6 = getelementptr inbounds nuw i8, ptr %0, i64 540
  store i32 %3, ptr %6, align 4, !tbaa !148
  tail call void @_ZN6icu_7717DateFormatSymbols17createZoneStringsEPKPKNS_13UnicodeStringE(ptr noundef nonnull align 8 dereferenceable(976) %0, ptr noundef %1)
  ret void
}